(dp0
I1
(lp1
F6.25
aF1.75
asI2
(lp2
F8.75
aF1.75
asI3
(lp3
F11.25
aF1.75
asI4
(lp4
F13.75
aF1.75
asI5
(lp5
F16.25
aF1.75
asI6
(lp6
F18.75
aF1.75
asI7
(lp7
F21.25
aF1.75
asI8
(lp8
F23.75
aF1.75
asI9
(lp9
F26.25
aF1.75
asI10
(lp10
F28.75
aF1.75
asI11
(lp11
F31.25
aF1.75
asI12
(lp12
F33.75
aF1.75
asI13
(lp13
F36.25
aF1.75
asI14
(lp14
F6.25
aF10.25
asI15
(lp15
F8.75
aF10.25
asI16
(lp16
F11.25
aF10.25
asI17
(lp17
F13.75
aF10.25
asI18
(lp18
F16.25
aF10.25
asI19
(lp19
F18.75
aF10.25
asI20
(lp20
F21.25
aF10.25
asI21
(lp21
F23.75
aF10.25
asI22
(lp22
F26.25
aF10.25
asI23
(lp23
F28.75
aF10.25
asI24
(lp24
F31.25
aF10.25
asI25
(lp25
F33.75
aF10.25
asI26
(lp26
F36.25
aF10.25
asI27
(lp27
F6.25
aF13.75
asI28
(lp28
F8.75
aF13.75
asI29
(lp29
F11.25
aF13.75
asI30
(lp30
F13.75
aF13.75
asI31
(lp31
F16.25
aF13.75
asI32
(lp32
F18.75
aF13.75
asI33
(lp33
F21.25
aF13.75
asI34
(lp34
F23.75
aF13.75
asI35
(lp35
F26.25
aF13.75
asI36
(lp36
F28.75
aF13.75
asI37
(lp37
F31.25
aF13.75
asI38
(lp38
F33.75
aF13.75
asI39
(lp39
F36.25
aF13.75
asI40
(lp40
F6.25
aF22.25
asI41
(lp41
F8.75
aF22.25
asI42
(lp42
F11.25
aF22.25
asI43
(lp43
F13.75
aF22.25
asI44
(lp44
F16.25
aF22.25
asI45
(lp45
F18.75
aF22.25
asI46
(lp46
F21.25
aF22.25
asI47
(lp47
F23.75
aF22.25
asI48
(lp48
F26.25
aF22.25
asI49
(lp49
F28.75
aF22.25
asI50
(lp50
F31.25
aF22.25
asI51
(lp51
F33.75
aF22.25
asI52
(lp52
F36.25
aF22.25
asI53
(lp53
F6.25
aF25.75
asI54
(lp54
F8.75
aF25.75
asI55
(lp55
F11.25
aF25.75
asI56
(lp56
F13.75
aF25.75
asI57
(lp57
F16.25
aF25.75
asI58
(lp58
F18.75
aF25.75
asI59
(lp59
F21.25
aF25.75
asI60
(lp60
F23.75
aF25.75
asI61
(lp61
F26.25
aF25.75
asI62
(lp62
F28.75
aF25.75
asI63
(lp63
F31.25
aF25.75
asI64
(lp64
F33.75
aF25.75
asI65
(lp65
F36.25
aF25.75
asI66
(lp66
F6.25
aF34.25
asI67
(lp67
F8.75
aF34.25
asI68
(lp68
F11.25
aF34.25
asI69
(lp69
F13.75
aF34.25
asI70
(lp70
F16.25
aF34.25
asI71
(lp71
F18.75
aF34.25
asI72
(lp72
F21.25
aF34.25
asI73
(lp73
F23.75
aF34.25
asI74
(lp74
F26.25
aF34.25
asI75
(lp75
F28.75
aF34.25
asI76
(lp76
F31.25
aF34.25
asI77
(lp77
F33.75
aF34.25
asI78
(lp78
F36.25
aF34.25
asI79
(lp79
F6.25
aF37.75
asI80
(lp80
F8.75
aF37.75
asI81
(lp81
F11.25
aF37.75
asI82
(lp82
F13.75
aF37.75
asI83
(lp83
F16.25
aF37.75
asI84
(lp84
F18.75
aF37.75
asI85
(lp85
F21.25
aF37.75
asI86
(lp86
F23.75
aF37.75
asI87
(lp87
F26.25
aF37.75
asI88
(lp88
F28.75
aF37.75
asI89
(lp89
F31.25
aF37.75
asI90
(lp90
F33.75
aF37.75
asI91
(lp91
F36.25
aF37.75
asI92
(lp92
F6.25
aF46.25
asI93
(lp93
F8.75
aF46.25
asI94
(lp94
F11.25
aF46.25
asI95
(lp95
F13.75
aF46.25
asI96
(lp96
F16.25
aF46.25
asI97
(lp97
F18.75
aF46.25
asI98
(lp98
F21.25
aF46.25
asI99
(lp99
F23.75
aF46.25
asI100
(lp100
F26.25
aF46.25
asI101
(lp101
F28.75
aF46.25
asI102
(lp102
F31.25
aF46.25
asI103
(lp103
F33.75
aF46.25
asI104
(lp104
F36.25
aF46.25
as.